target datalayout = "e-m:e-p270:32:32-p271:32:32-p272:64:64-i64:64-i128:128-f80:128-n8:16:32:64-S128"
target triple = "x86_64-unknown-linux-gnu"

%struct.ArchCPU = type { %struct.CPUState, %struct.CPUArchState, ptr, ptr, %struct.RISCVCPUConfig, ptr, i32, ptr }
%struct.CPUState = type { %struct.DeviceState, ptr, i32, i32, ptr, i32, i8, i8, ptr, i8, i8, i8, i8, i8, i8, i8, i8, i32, i32, i32, i32, i64, i64, i64, [1 x %struct.__jmp_buf_tag], %struct.QemuMutex, %struct.anon, ptr, i32, ptr, ptr, ptr, ptr, i32, i32, %union.anon, %union.anon.0, %union.anon.1, ptr, ptr, i64, i32, ptr, ptr, ptr, i32, i64, i32, %struct.QemuLockCnt, [1 x i64], ptr, i32, i32, i32, i32, i32, ptr, i8, i8, i64, i8, i8, ptr, [8 x i8], [0 x i8], %struct.CPUNegativeOffsetState }
%struct.DeviceState = type { %struct.Object, ptr, ptr, i8, i8, i64, ptr, i32, i8, ptr, %struct.NamedGPIOListHead, %struct.NamedClockListHead, %struct.BusStateHead, i32, i32, i32, %struct.ResettableState, ptr, %struct.MemReentrancyGuard }
%struct.Object = type { ptr, ptr, ptr, i32, ptr }
%struct.NamedGPIOListHead = type { ptr }
%struct.NamedClockListHead = type { ptr }
%struct.BusStateHead = type { ptr }
%struct.ResettableState = type { i32, i8, i8 }
%struct.MemReentrancyGuard = type { i8 }
%struct.__jmp_buf_tag = type { [8 x i64], i32, %struct.__sigset_t }
%struct.__sigset_t = type { [16 x i64] }
%struct.QemuMutex = type { %union.pthread_mutex_t, i8 }
%union.pthread_mutex_t = type { %struct.__pthread_mutex_s }
%struct.__pthread_mutex_s = type { i32, i32, i32, i32, i32, i16, i16, %struct.__pthread_internal_list }
%struct.__pthread_internal_list = type { ptr, ptr }
%struct.anon = type { ptr, ptr }
%union.anon = type { %struct.QTailQLink }
%struct.QTailQLink = type { ptr, ptr }
%union.anon.0 = type { %struct.QTailQLink }
%union.anon.1 = type { %struct.QTailQLink }
%struct.QemuLockCnt = type { i32 }
%struct.CPUNegativeOffsetState = type { %struct.CPUTLB, %union.IcountDecr, i8, [11 x i8] }
%struct.CPUTLB = type { %struct.CPUTLBCommon, [16 x %struct.CPUTLBDesc], [16 x %struct.CPUTLBDescFast] }
%struct.CPUTLBCommon = type { %struct.QemuSpin, i16, i64, i64, i64 }
%struct.QemuSpin = type { i32 }
%struct.CPUTLBDesc = type { i64, i64, i64, i64, i64, i64, [8 x %union.CPUTLBEntry], [8 x %struct.CPUTLBEntryFull], ptr }
%union.CPUTLBEntry = type { %struct.anon.2 }
%struct.anon.2 = type { i64, i64, i64, i64 }
%struct.CPUTLBEntryFull = type { i64, i64, %struct.MemTxAttrs, i8, i8, [3 x i8], %union.anon.3 }
%struct.MemTxAttrs = type { i32 }
%union.anon.3 = type { %struct.anon.4 }
%struct.anon.4 = type { i8, i8, i8 }
%struct.CPUTLBDescFast = type { i64, ptr }
%union.IcountDecr = type { i32 }
%struct.CPUArchState = type { [32 x i64], [32 x i64], [512 x i64], i64, i64, i64, i64, i64, i8, i64, i64, i64, [32 x i64], i64, %struct.float_status, i64, i64, i64, i64, i64, i64, i32, i32, i32, i32, i32, i64, i64, i32, i64, i64, ptr, ptr, i8, i64, i64, [8 x i8] }
%struct.float_status = type { i16, i8, i8, i8, i8, i8, i8, i8, i8, i8, i8, i8 }
%struct.RISCVCPUConfig = type { i8, i8, i8, i8, i8, i8, i8, i8, i8, i8, i8, i8, i8, i8, i8, i8, i8, i8, i8, i8, i8, i8, i8, i8, i8, i8, i8, i8, i8, i8, i8, i8, i8, i8, i8, i8, i8, i8, i8, i8, i8, i8, i8, i8, i8, i8, i8, i8, i8, i8, i8, i8, i8, i8, i8, i8, i8, i8, i8, i8, i8, i8, i8, i8, i8, i8, i8, i8, i8, i8, i8, i8, i8, i8, i8, i8, i8, i8, i32, i64, i64, i8, i8, i8, i8, i8, i8, i8, i8, i8, i8, i8, i8, i32, ptr, ptr, ptr, ptr, i16, i16, i16, i16, i8, i8, i8, i8, i8 }
%struct.RISCVCPUClass = type { %struct.CPUClass, ptr, %struct.ResettablePhases }
%struct.CPUClass = type { %struct.DeviceClass, ptr, ptr, ptr, ptr, ptr, ptr, ptr, ptr, ptr, ptr, ptr, ptr, ptr, ptr, ptr, ptr, ptr, ptr, ptr, ptr, ptr, i32, i32, i8 }
%struct.DeviceClass = type { %struct.ObjectClass, [1 x i64], ptr, ptr, ptr, i8, i8, ptr, ptr, ptr, ptr, ptr }
%struct.ObjectClass = type { ptr, ptr, [4 x ptr], [4 x ptr], ptr, ptr }
%struct.ResettablePhases = type { ptr, ptr, ptr }

@.str.250 = private unnamed_addr constant [10 x i8] c"riscv-cpu\00", align 1
@.str.282 = private unnamed_addr constant [31 x i8] c"../qemu/target/riscv/cpu-qom.h\00", align 1
@__func__.RISCV_CPU_GET_CLASS = private unnamed_addr constant [20 x i8] c"RISCV_CPU_GET_CLASS\00", align 1
@__func__.RISCV_CPU = private unnamed_addr constant [10 x i8] c"RISCV_CPU\00", align 1

; Function Attrs: nounwind sspstrong uwtable
define internal void @set_default_nan_mode(i1 noundef zeroext %val, ptr noundef %status) #0 {
entry:
  %val.addr = alloca i8, align 1
  %status.addr = alloca ptr, align 8
  %frombool = zext i1 %val to i8
  store i8 %frombool, ptr %val.addr, align 1
  store ptr %status, ptr %status.addr, align 8
  %0 = load i8, ptr %val.addr, align 1
  %tobool = trunc i8 %0 to i1
  %1 = load ptr, ptr %status.addr, align 8
  %default_nan_mode = getelementptr inbounds %struct.float_status, ptr %1, i32 0, i32 6
  %frombool1 = zext i1 %tobool to i8
  store i8 %frombool1, ptr %default_nan_mode, align 1
  ret void
}

; Function Attrs: nounwind sspstrong uwtable
define internal i32 @riscv_cpu_mxl(ptr noundef %env) #0 {
entry:
  %env.addr = alloca ptr, align 8
  store ptr %env, ptr %env.addr, align 8
  %0 = load ptr, ptr %env.addr, align 8
  %misa_mxl = getelementptr inbounds %struct.CPUArchState, ptr %0, i32 0, i32 21
  %1 = load i32, ptr %misa_mxl, align 16
  ret i32 %1
}

; Function Attrs: nounwind sspstrong uwtable
define internal ptr @RISCV_CPU_GET_CLASS(ptr noundef %obj) #0 {
entry:
  %obj.addr = alloca ptr, align 8
  store ptr %obj, ptr %obj.addr, align 8
  %0 = load ptr, ptr %obj.addr, align 8
  %call = call ptr @object_get_class(ptr noundef %0)
  %call1 = call ptr @object_class_dynamic_cast_assert(ptr noundef %call, ptr noundef @.str.250, ptr noundef @.str.282, i32 noundef 46, ptr noundef @__func__.RISCV_CPU_GET_CLASS)
  ret ptr %call1
}

; Function Attrs: nounwind sspstrong uwtable
define internal ptr @RISCV_CPU(ptr noundef %obj) #0 {
entry:
  %obj.addr = alloca ptr, align 8
  store ptr %obj, ptr %obj.addr, align 8
  %0 = load ptr, ptr %obj.addr, align 8
  %call = call ptr @object_dynamic_cast_assert(ptr noundef %0, ptr noundef @.str.250, ptr noundef @.str.282, i32 noundef 46, ptr noundef @__func__.RISCV_CPU)
  ret ptr %call
}

; Function Attrs: nounwind sspstrong uwtable
define internal void @riscv_cpu_reset_hold(ptr noundef %obj) #0 {
entry:
  %obj.addr = alloca ptr, align 8
  %cs = alloca ptr, align 8
  %cpu = alloca ptr, align 8
  %mcc = alloca ptr, align 8
  %env = alloca ptr, align 8
  store ptr %obj, ptr %obj.addr, align 8
  %0 = load ptr, ptr %obj.addr, align 8
  store ptr %0, ptr %cs, align 8
  %1 = load ptr, ptr %cs, align 8
  %call = call ptr @RISCV_CPU(ptr noundef %1)
  store ptr %call, ptr %cpu, align 8
  %2 = load ptr, ptr %cpu, align 8
  %call1 = call ptr @RISCV_CPU_GET_CLASS(ptr noundef %2)
  store ptr %call1, ptr %mcc, align 8
  %3 = load ptr, ptr %cpu, align 8
  %env2 = getelementptr inbounds %struct.ArchCPU, ptr %3, i32 0, i32 1
  store ptr %env2, ptr %env, align 8
  %4 = load ptr, ptr %mcc, align 8
  %parent_phases = getelementptr inbounds %struct.RISCVCPUClass, ptr %4, i32 0, i32 2
  %hold = getelementptr inbounds %struct.ResettablePhases, ptr %parent_phases, i32 0, i32 1
  %5 = load ptr, ptr %hold, align 8
  %tobool = icmp ne ptr %5, null
  br i1 %tobool, label %if.then, label %if.end

if.then:                                          ; preds = %entry
  %6 = load ptr, ptr %mcc, align 8
  %parent_phases3 = getelementptr inbounds %struct.RISCVCPUClass, ptr %6, i32 0, i32 2
  %hold4 = getelementptr inbounds %struct.ResettablePhases, ptr %parent_phases3, i32 0, i32 1
  %7 = load ptr, ptr %hold4, align 8
  %8 = load ptr, ptr %obj.addr, align 8
  call void %7(ptr noundef %8)
  br label %if.end

if.end:                                           ; preds = %if.then, %entry
  %9 = load ptr, ptr %env, align 8
  %call5 = call i32 @riscv_cpu_mxl(ptr noundef %9)
  %10 = load ptr, ptr %env, align 8
  %xl = getelementptr inbounds %struct.CPUArchState, ptr %10, i32 0, i32 25
  store i32 %call5, ptr %xl, align 16
  %11 = load ptr, ptr %env, align 8
  call void @riscv_cpu_update_mask(ptr noundef %11)
  %12 = load ptr, ptr %cs, align 8
  %exception_index = getelementptr inbounds %struct.CPUState, ptr %12, i32 0, i32 55
  store i32 -1, ptr %exception_index, align 8
  %13 = load ptr, ptr %env, align 8
  %load_res = getelementptr inbounds %struct.CPUArchState, ptr %13, i32 0, i32 10
  store i64 -1, ptr %load_res, align 8
  %14 = load ptr, ptr %env, align 8
  %fp_status = getelementptr inbounds %struct.CPUArchState, ptr %14, i32 0, i32 14
  call void @set_default_nan_mode(i1 noundef zeroext true, ptr noundef %fp_status)
  ret void
}