; Function Attrs: nounwind sspstrong uwtable
define internal void @riscv_cpu_reset_hold(ptr noundef %obj) #3 {
entry:
  %call.i = tail call ptr @object_dynamic_cast_assert(ptr noundef %obj, ptr noundef nonnull @.str.250, ptr noundef nonnull @.str.282, i32 noundef 46, ptr noundef nonnull @__func__.RISCV_CPU) #14
  %call.i9 = tail call ptr @object_get_class(ptr noundef %call.i) #14
  %call1.i = tail call ptr @object_class_dynamic_cast_assert(ptr noundef %call.i9, ptr noundef nonnull @.str.250, ptr noundef nonnull @.str.282, i32 noundef 46, ptr noundef nonnull @__func__.RISCV_CPU_GET_CLASS) #14
  %hold = getelementptr inbounds nuw i8, ptr %call1.i, i64 376
  %0 = load ptr, ptr %hold, align 8
  %tobool.not = icmp eq ptr %0, null
  br i1 %tobool.not, label %if.end, label %if.then

if.then:                                          ; preds = %entry
  tail call void %0(ptr noundef %obj) #14
  br label %if.end

if.end:                                           ; preds = %if.then, %entry
  %env2 = getelementptr inbounds nuw i8, ptr %call.i, i64 10176
  %1 = getelementptr i8, ptr %call.i, i64 15184
  %env2.val = load i32, ptr %1, align 16
  %xl = getelementptr inbounds nuw i8, ptr %call.i, i64 15200
  store i32 %env2.val, ptr %xl, align 16
  tail call void @riscv_cpu_update_mask(ptr noundef nonnull %env2) #14
  %exception_index = getelementptr inbounds nuw i8, ptr %obj, i64 728
  store i32 -1, ptr %exception_index, align 8
  %load_res = getelementptr inbounds nuw i8, ptr %call.i, i64 14840
  store i64 -1, ptr %load_res, align 8
  %default_nan_mode.i = getelementptr inbounds nuw i8, ptr %call.i, i64 15127
  store i8 1, ptr %default_nan_mode.i, align 1
  ret void
}